target datalayout = "e-m:e-p270:32:32-p271:32:32-p272:64:64-i64:64-i128:128-f80:128-n8:16:32:64-S128"
target triple = "x86_64-pc-linux-gnu"

%struct.dt_control_crawler_gui_t = type { ptr, ptr, ptr, ptr, ptr }

; Function Attrs: nounwind uwtable
define internal void @_reload_button_clicked(ptr noundef %0, ptr noundef %1) #0 {
  %3 = alloca ptr, align 8
  %4 = alloca ptr, align 8
  %5 = alloca ptr, align 8
  %6 = alloca ptr, align 8
  store ptr %0, ptr %3, align 8, !tbaa !73
  store ptr %1, ptr %4, align 8, !tbaa !75
  call void @llvm.lifetime.start.p0(i64 8, ptr %5) #11
  %7 = load ptr, ptr %4, align 8, !tbaa !75
  store ptr %7, ptr %5, align 8, !tbaa !76
  call void @llvm.lifetime.start.p0(i64 8, ptr %6) #11
  %8 = load ptr, ptr %5, align 8, !tbaa !76
  %9 = getelementptr inbounds nuw %struct.dt_control_crawler_gui_t, ptr %8, i32 0, i32 0
  %10 = load ptr, ptr %9, align 8, !tbaa !78
  %11 = call ptr @gtk_tree_view_get_selection(ptr noundef %10)
  store ptr %11, ptr %6, align 8, !tbaa !83
  %12 = load ptr, ptr %5, align 8, !tbaa !76
  %13 = getelementptr inbounds nuw %struct.dt_control_crawler_gui_t, ptr %12, i32 0, i32 4
  store ptr null, ptr %13, align 8, !tbaa !85
  %14 = load ptr, ptr %5, align 8, !tbaa !76
  %15 = getelementptr inbounds nuw %struct.dt_control_crawler_gui_t, ptr %14, i32 0, i32 3
  %16 = load ptr, ptr %15, align 8, !tbaa !86
  %17 = call i64 @gtk_spinner_get_type() #15
  %18 = call ptr @g_type_check_instance_cast(ptr noundef %16, i64 noundef %17)
  call void @gtk_spinner_start(ptr noundef %18)
  %19 = load ptr, ptr %6, align 8, !tbaa !83
  %20 = load ptr, ptr %5, align 8, !tbaa !76
  call void @gtk_tree_selection_selected_foreach(ptr noundef %19, ptr noundef @sync_xmp_to_db, ptr noundef %20)
  %21 = load ptr, ptr %5, align 8, !tbaa !76
  call void @_delete_selected_rows(ptr noundef %21)
  %22 = load ptr, ptr %5, align 8, !tbaa !76
  %23 = getelementptr inbounds nuw %struct.dt_control_crawler_gui_t, ptr %22, i32 0, i32 3
  %24 = load ptr, ptr %23, align 8, !tbaa !86
  %25 = call i64 @gtk_spinner_get_type() #15
  %26 = call ptr @g_type_check_instance_cast(ptr noundef %24, i64 noundef %25)
  call void @gtk_spinner_stop(ptr noundef %26)
  call void @llvm.lifetime.end.p0(i64 8, ptr %6) #11
  call void @llvm.lifetime.end.p0(i64 8, ptr %5) #11
  ret void
}